target datalayout = "e-m:e-p270:32:32-p271:32:32-p272:64:64-i64:64-i128:128-f80:128-n8:16:32:64-S128"
target triple = "x86_64-pc-linux-gnu"

%"class.icu_77::double_conversion::Bignum" = type { i16, i16, [128 x i32] }

; Function Attrs: mustprogress nounwind uwtable
define noundef nonnull align 4 dereferenceable(4) ptr @_ZNK6icu_7717double_conversion6Bignum8RawBigitEi(ptr noundef nonnull align 4 dereferenceable(516) %0, i32 noundef %1) #0 align 2 {
  %3 = alloca ptr, align 8
  %4 = alloca i32, align 4
  store ptr %0, ptr %3, align 8, !tbaa !3
  store i32 %1, ptr %4, align 4, !tbaa !8
  %5 = load ptr, ptr %3, align 8
  %6 = getelementptr inbounds nuw %"class.icu_77::double_conversion::Bignum", ptr %5, i32 0, i32 2
  %7 = load i32, ptr %4, align 4, !tbaa !8
  %8 = sext i32 %7 to i64
  %9 = getelementptr inbounds [128 x i32], ptr %6, i64 0, i64 %8
  ret ptr %9
}

; Function Attrs: mustprogress nounwind uwtable
define linkonce_odr noundef i32 @_ZNK6icu_7717double_conversion6Bignum11BigitLengthEv(ptr noundef nonnull align 4 dereferenceable(516) %0) #0 comdat align 2 {
  %2 = alloca ptr, align 8
  store ptr %0, ptr %2, align 8, !tbaa !3
  %3 = load ptr, ptr %2, align 8
  %4 = getelementptr inbounds nuw %"class.icu_77::double_conversion::Bignum", ptr %3, i32 0, i32 0
  %5 = load i16, ptr %4, align 4, !tbaa !12
  %6 = sext i16 %5 to i32
  %7 = getelementptr inbounds nuw %"class.icu_77::double_conversion::Bignum", ptr %3, i32 0, i32 1
  %8 = load i16, ptr %7, align 2, !tbaa !14
  %9 = sext i16 %8 to i32
  %10 = add nsw i32 %6, %9
  ret i32 %10
}

; Function Attrs: mustprogress uwtable
define noundef i32 @_ZNK6icu_7717double_conversion6Bignum11BigitOrZeroEi(ptr noundef nonnull align 4 dereferenceable(516) %0, i32 noundef %1) #1 align 2 {
  %3 = alloca i32, align 4
  %4 = alloca ptr, align 8
  %5 = alloca i32, align 4
  store ptr %0, ptr %4, align 8, !tbaa !3
  store i32 %1, ptr %5, align 4, !tbaa !8
  %6 = load ptr, ptr %4, align 8
  %7 = load i32, ptr %5, align 4, !tbaa !8
  %8 = call noundef i32 @_ZNK6icu_7717double_conversion6Bignum11BigitLengthEv(ptr noundef nonnull align 4 dereferenceable(516) %6)
  %9 = icmp sge i32 %7, %8
  br i1 %9, label %10, label %11

10:                                               ; preds = %2
  store i32 0, ptr %3, align 4
  br label %26

11:                                               ; preds = %2
  %12 = load i32, ptr %5, align 4, !tbaa !8
  %13 = getelementptr inbounds nuw %"class.icu_77::double_conversion::Bignum", ptr %6, i32 0, i32 1
  %14 = load i16, ptr %13, align 2, !tbaa !14
  %15 = sext i16 %14 to i32
  %16 = icmp slt i32 %12, %15
  br i1 %16, label %17, label %18

17:                                               ; preds = %11
  store i32 0, ptr %3, align 4
  br label %26

18:                                               ; preds = %11
  %19 = load i32, ptr %5, align 4, !tbaa !8
  %20 = getelementptr inbounds nuw %"class.icu_77::double_conversion::Bignum", ptr %6, i32 0, i32 1
  %21 = load i16, ptr %20, align 2, !tbaa !14
  %22 = sext i16 %21 to i32
  %23 = sub nsw i32 %19, %22
  %24 = call noundef nonnull align 4 dereferenceable(4) ptr @_ZNK6icu_7717double_conversion6Bignum8RawBigitEi(ptr noundef nonnull align 4 dereferenceable(516) %6, i32 noundef %23)
  %25 = load i32, ptr %24, align 4, !tbaa !8
  store i32 %25, ptr %3, align 4
  br label %26

26:                                               ; preds = %18, %17, %10
  %27 = load i32, ptr %3, align 4
  ret i32 %27
}